; Function Attrs: mustprogress nofree norecurse nosync nounwind willreturn memory(read, inaccessiblemem: none) uwtable
define dso_local noundef zeroext i1 @_ZNK11btMultiBody15isBaseKinematicEv(ptr nocapture noundef nonnull readonly align 8 dereferenceable(640) %this) local_unnamed_addr #6 align 2 {
entry:
  %m_baseCollider.i = getelementptr inbounds i8, ptr %this, i64 8
  %0 = load ptr, ptr %m_baseCollider.i, align 8
  %tobool.not = icmp eq ptr %0, null
  br i1 %tobool.not, label %land.end, label %land.rhs

land.rhs:                                         ; preds = %entry
  %m_collisionFlags.i = getelementptr inbounds i8, ptr %0, i64 224
  %1 = load i32, ptr %m_collisionFlags.i, align 8
  %and.i = and i32 %1, 2
  %cmp.i = icmp ne i32 %and.i, 0
  br label %land.end

land.end:                                         ; preds = %land.rhs, %entry
  %2 = phi i1 [ false, %entry ], [ %cmp.i, %land.rhs ]
  ret i1 %2
}